target datalayout = "e-m:e-p270:32:32-p271:32:32-p272:64:64-i64:64-i128:128-f80:128-n8:16:32:64-S128"
target triple = "x86_64-pc-linux-gnu"

%"class.pbrt::ColorEncoding" = type { %"class.pbrt::TaggedPointer" }
%"class.pbrt::TaggedPointer" = type { i64 }
%"struct.pbrt::ImageChannelDesc" = type { %"class.pbrt::InlinedVector.1" }
%"class.pbrt::InlinedVector.1" = type { %"class.pstd::pmr::polymorphic_allocator.2", ptr, %union.anon.3, i64, i64 }
%"class.pstd::pmr::polymorphic_allocator.2" = type { ptr }
%union.anon.3 = type { [4 x i32] }
%"class.pbrt::Point2" = type { %"class.pbrt::Tuple2" }
%"class.pbrt::Tuple2" = type { i32, i32 }
%"class.pbrt::Image" = type { i32, %"class.pbrt::Point2", %"class.pstd::vector", %"class.pbrt::ColorEncoding", %"class.pstd::vector.28", %"class.pstd::vector.30", %"class.pstd::vector.32" }
%"class.pstd::vector" = type { %"class.pstd::pmr::polymorphic_allocator.27", ptr, i64, i64 }
%"class.pstd::pmr::polymorphic_allocator.27" = type { ptr }
%"class.pstd::vector.28" = type { %"class.pstd::pmr::polymorphic_allocator.29", ptr, i64, i64 }
%"class.pstd::pmr::polymorphic_allocator.29" = type { ptr }
%"class.pstd::vector.30" = type { %"class.pstd::pmr::polymorphic_allocator.31", ptr, i64, i64 }
%"class.pstd::pmr::polymorphic_allocator.31" = type { ptr }
%"class.pstd::vector.32" = type { %"class.pstd::pmr::polymorphic_allocator", ptr, i64, i64 }
%"class.pstd::pmr::polymorphic_allocator" = type { ptr }
%"class.pstd::span.57" = type { ptr, i64 }

@.str.5 = private unnamed_addr constant [117 x i8] c"generated/home/dtcxzyw/WorkSpace/Projects/compilers/llvm-opt-benchmark/bench/pbrt-v4/pbrt-v4/src/pbrt/util/image.cpp\00", align 1
@.str.24 = private unnamed_addr constant [45 x i8] c"Check failed: %s <= %s with %s = %s, %s = %s\00", align 1
@.str.25 = private unnamed_addr constant [14 x i8] c"values.size()\00", align 1
@.str.26 = private unnamed_addr constant [12 x i8] c"NChannels()\00", align 1

; Function Attrs: mustprogress nounwind uwtable
define linkonce_odr dso_local noundef ptr @_ZNK4pbrt13InlinedVectorIiLi4EN4pstd3pmr21polymorphic_allocatorIiEEE5beginEv(ptr noundef nonnull align 8 dereferenceable(48) %0) #7 comdat align 2 {
  %2 = alloca ptr, align 8
  store ptr %0, ptr %2, align 8, !tbaa !43
  %3 = load ptr, ptr %2, align 8
  %4 = getelementptr inbounds nuw %"class.pbrt::InlinedVector.1", ptr %3, i32 0, i32 1
  %5 = load ptr, ptr %4, align 8, !tbaa !265
  %6 = icmp ne ptr %5, null
  br i1 %6, label %7, label %10

7:                                                ; preds = %1
  %8 = getelementptr inbounds nuw %"class.pbrt::InlinedVector.1", ptr %3, i32 0, i32 1
  %9 = load ptr, ptr %8, align 8, !tbaa !265
  br label %13

10:                                               ; preds = %1
  %11 = getelementptr inbounds nuw %"class.pbrt::InlinedVector.1", ptr %3, i32 0, i32 2
  %12 = getelementptr inbounds [4 x i32], ptr %11, i64 0, i64 0
  br label %13

13:                                               ; preds = %10, %7
  %14 = phi ptr [ %9, %7 ], [ %12, %10 ]
  ret ptr %14
}

; Function Attrs: mustprogress nounwind uwtable
define linkonce_odr dso_local noundef i64 @_ZNK4pstd6vectorINSt7__cxx1112basic_stringIcSt11char_traitsIcESaIcEEENS_3pmr21polymorphic_allocatorIS6_EEE4sizeEv(ptr noundef nonnull align 8 dereferenceable(32) %0) #7 comdat align 2 {
  %2 = alloca ptr, align 8
  store ptr %0, ptr %2, align 8, !tbaa !162
  %3 = load ptr, ptr %2, align 8
  %4 = getelementptr inbounds nuw %"class.pstd::vector", ptr %3, i32 0, i32 3
  %5 = load i64, ptr %4, align 8, !tbaa !223
  ret i64 %5
}

; Function Attrs: mustprogress nounwind uwtable
define linkonce_odr dso_local noundef nonnull align 4 dereferenceable(4) ptr @_ZN4pstd4spanIKfEixEm(ptr noundef nonnull align 8 dereferenceable(16) %0, i64 noundef %1) #7 comdat align 2 {
  %3 = alloca ptr, align 8
  %4 = alloca i64, align 8
  store ptr %0, ptr %3, align 8, !tbaa !210
  store i64 %1, ptr %4, align 8, !tbaa !114
  %5 = load ptr, ptr %3, align 8
  br label %6

6:                                                ; preds = %2
  br label %7

7:                                                ; preds = %6
  %8 = getelementptr inbounds nuw %"class.pstd::span.57", ptr %5, i32 0, i32 0
  %9 = load ptr, ptr %8, align 8, !tbaa !212
  %10 = load i64, ptr %4, align 8, !tbaa !114
  %11 = getelementptr inbounds nuw float, ptr %9, i64 %10
  ret ptr %11
}

; Function Attrs: mustprogress nounwind uwtable
define linkonce_odr dso_local noundef nonnull align 4 dereferenceable(4) ptr @_ZNK4pbrt13InlinedVectorIiLi4EN4pstd3pmr21polymorphic_allocatorIiEEEixEm(ptr noundef nonnull align 8 dereferenceable(48) %0, i64 noundef %1) #7 comdat align 2 {
  %3 = alloca ptr, align 8
  %4 = alloca i64, align 8
  store ptr %0, ptr %3, align 8, !tbaa !43
  store i64 %1, ptr %4, align 8, !tbaa !114
  %5 = load ptr, ptr %3, align 8
  br label %6

6:                                                ; preds = %2
  br label %7

7:                                                ; preds = %6
  %8 = call noundef ptr @_ZNK4pbrt13InlinedVectorIiLi4EN4pstd3pmr21polymorphic_allocatorIiEEE5beginEv(ptr noundef nonnull align 8 dereferenceable(48) %5)
  %9 = load i64, ptr %4, align 8, !tbaa !114
  %10 = getelementptr inbounds nuw i32, ptr %8, i64 %9
  ret ptr %10
}

; Function Attrs: mustprogress uwtable
define linkonce_odr dso_local noundef i32 @_ZNK4pbrt5Image9NChannelsEv(ptr noundef nonnull align 8 dereferenceable(152) %0) #1 comdat align 2 {
  %2 = alloca ptr, align 8
  store ptr %0, ptr %2, align 8, !tbaa !66
  %3 = load ptr, ptr %2, align 8
  %4 = getelementptr inbounds nuw %"class.pbrt::Image", ptr %3, i32 0, i32 2
  %5 = call noundef i64 @_ZNK4pstd6vectorINSt7__cxx1112basic_stringIcSt11char_traitsIcESaIcEEENS_3pmr21polymorphic_allocatorIS6_EEE4sizeEv(ptr noundef nonnull align 8 dereferenceable(32) %4)
  %6 = trunc i64 %5 to i32
  ret i32 %6
}

; Function Attrs: mustprogress nounwind uwtable
define linkonce_odr dso_local noundef i64 @_ZNK4pstd4spanIKfE4sizeEv(ptr noundef nonnull align 8 dereferenceable(16) %0) #7 comdat align 2 {
  %2 = alloca ptr, align 8
  store ptr %0, ptr %2, align 8, !tbaa !210
  %3 = load ptr, ptr %2, align 8
  %4 = getelementptr inbounds nuw %"class.pstd::span.57", ptr %3, i32 0, i32 1
  %5 = load i64, ptr %4, align 8, !tbaa !214
  ret i64 %5
}

; Function Attrs: mustprogress uwtable
define dso_local void @_ZN4pbrt5Image11SetChannelsENS_6Point2IiEERKNS_16ImageChannelDescEN4pstd4spanIKfEE(ptr noundef nonnull align 8 dereferenceable(152) %0, i64 %1, ptr noundef nonnull align 8 dereferenceable(48) %2, ptr %3, i64 %4) #1 align 2 {
  %6 = alloca %"class.pbrt::Point2", align 4
  %7 = alloca %"class.pstd::span.57", align 8
  %8 = alloca ptr, align 8
  %9 = alloca ptr, align 8
  %10 = alloca i64, align 8
  %11 = alloca i32, align 4
  %12 = alloca i64, align 8
  %13 = alloca %"class.pbrt::Point2", align 4
  %14 = getelementptr inbounds nuw %"class.pbrt::Point2", ptr %6, i32 0, i32 0
  store i64 %1, ptr %14, align 4
  %15 = getelementptr inbounds nuw { ptr, i64 }, ptr %7, i32 0, i32 0
  store ptr %3, ptr %15, align 8
  %16 = getelementptr inbounds nuw { ptr, i64 }, ptr %7, i32 0, i32 1
  store i64 %4, ptr %16, align 8
  store ptr %0, ptr %8, align 8, !tbaa !66
  store ptr %2, ptr %9, align 8, !tbaa !41
  %17 = load ptr, ptr %8, align 8
  br label %18

18:                                               ; preds = %5
  call void @llvm.lifetime.start.p0(i64 8, ptr %10) #5
  %19 = call noundef i64 @_ZNK4pstd4spanIKfE4sizeEv(ptr noundef nonnull align 8 dereferenceable(16) %7)
  store i64 %19, ptr %10, align 8, !tbaa !114
  call void @llvm.lifetime.start.p0(i64 4, ptr %11) #5
  %20 = call noundef i32 @_ZNK4pbrt5Image9NChannelsEv(ptr noundef nonnull align 8 dereferenceable(152) %17)
  store i32 %20, ptr %11, align 4, !tbaa !22
  %21 = load i64, ptr %10, align 8, !tbaa !114
  %22 = load i32, ptr %11, align 4, !tbaa !22
  %23 = sext i32 %22 to i64
  %24 = icmp ule i64 %21, %23
  br i1 %24, label %26, label %25

25:                                               ; preds = %18
  call void @_ZN4pbrt8LogFatalIJRA14_KcRA12_S1_S3_RmS5_RiEEEvNS_8LogLevelEPS1_iS9_DpOT_(i32 noundef 2, ptr noundef @.str.5, i32 noundef 456, ptr noundef @.str.24, ptr noundef nonnull align 1 dereferenceable(14) @.str.25, ptr noundef nonnull align 1 dereferenceable(12) @.str.26, ptr noundef nonnull align 1 dereferenceable(14) @.str.25, ptr noundef nonnull align 8 dereferenceable(8) %10, ptr noundef nonnull align 1 dereferenceable(12) @.str.26, ptr noundef nonnull align 4 dereferenceable(4) %11) #28
  unreachable

26:                                               ; preds = %18
  call void @llvm.lifetime.end.p0(i64 4, ptr %11) #5
  call void @llvm.lifetime.end.p0(i64 8, ptr %10) #5
  br label %27

27:                                               ; preds = %26
  call void @llvm.lifetime.start.p0(i64 8, ptr %12) #5
  store i64 0, ptr %12, align 8, !tbaa !114
  br label %28

28:                                               ; preds = %44, %27
  %29 = load i64, ptr %12, align 8, !tbaa !114
  %30 = call noundef i64 @_ZNK4pstd4spanIKfE4sizeEv(ptr noundef nonnull align 8 dereferenceable(16) %7)
  %31 = icmp ult i64 %29, %30
  br i1 %31, label %33, label %32

32:                                               ; preds = %28
  call void @llvm.lifetime.end.p0(i64 8, ptr %12) #5
  br label %47

33:                                               ; preds = %28
  call void @llvm.memcpy.p0.p0.i64(ptr align 4 %13, ptr align 4 %6, i64 8, i1 false)
  %34 = load ptr, ptr %9, align 8, !tbaa !41
  %35 = getelementptr inbounds nuw %"struct.pbrt::ImageChannelDesc", ptr %34, i32 0, i32 0
  %36 = load i64, ptr %12, align 8, !tbaa !114
  %37 = call noundef nonnull align 4 dereferenceable(4) ptr @_ZNK4pbrt13InlinedVectorIiLi4EN4pstd3pmr21polymorphic_allocatorIiEEEixEm(ptr noundef nonnull align 8 dereferenceable(48) %35, i64 noundef %36)
  %38 = load i32, ptr %37, align 4, !tbaa !22
  %39 = load i64, ptr %12, align 8, !tbaa !114
  %40 = call noundef nonnull align 4 dereferenceable(4) ptr @_ZN4pstd4spanIKfEixEm(ptr noundef nonnull align 8 dereferenceable(16) %7, i64 noundef %39)
  %41 = load float, ptr %40, align 4, !tbaa !9
  %42 = getelementptr inbounds nuw %"class.pbrt::Point2", ptr %13, i32 0, i32 0
  %43 = load i64, ptr %42, align 4
  call void @_ZN4pbrt5Image10SetChannelENS_6Point2IiEEif(ptr noundef nonnull align 8 dereferenceable(152) %17, i64 %43, i32 noundef %38, float noundef %41)
  br label %44

44:                                               ; preds = %33
  %45 = load i64, ptr %12, align 8, !tbaa !114
  %46 = add i64 %45, 1
  store i64 %46, ptr %12, align 8, !tbaa !114
  br label %28, !llvm.loop !288

47:                                               ; preds = %32
  ret void
}