; Function Attrs: mustprogress uwtable
define dso_local void @_ZN4pbrt5Image11SetChannelsENS_6Point2IiEERKNS_16ImageChannelDescEN4pstd4spanIKfEE(ptr noundef nonnull align 8 dereferenceable(152) %0, i64 %1, ptr noundef nonnull readonly align 8 captures(none) dereferenceable(48) %2, ptr readonly captures(none) %3, i64 %4) local_unnamed_addr #8 align 2 {
  %6 = alloca i64, align 8
  %7 = alloca i32, align 4
  call void @llvm.lifetime.start.p0(i64 8, ptr nonnull %6) #35
  store i64 %4, ptr %6, align 8, !tbaa !24
  call void @llvm.lifetime.start.p0(i64 4, ptr nonnull %7) #35
  %8 = getelementptr inbounds nuw i8, ptr %0, i64 40
  %9 = load i64, ptr %8, align 8, !tbaa !61
  %10 = trunc i64 %9 to i32
  store i32 %10, ptr %7, align 4, !tbaa !13
  %sext = shl i64 %9, 32
  %11 = ashr exact i64 %sext, 32
  %.not = icmp ugt i64 %4, %11
  br i1 %.not, label %12, label %13

12:                                               ; preds = %5
  call void @_ZN4pbrt8LogFatalIJRA14_KcRA12_S1_S3_RmS5_RiEEEvNS_8LogLevelEPS1_iS9_DpOT_(i32 noundef 2, ptr noundef nonnull @.str.5, i32 noundef 456, ptr noundef nonnull @.str.24, ptr noundef nonnull align 1 dereferenceable(14) @.str.25, ptr noundef nonnull align 1 dereferenceable(12) @.str.26, ptr noundef nonnull align 1 dereferenceable(14) @.str.25, ptr noundef nonnull align 8 dereferenceable(8) %6, ptr noundef nonnull align 1 dereferenceable(12) @.str.26, ptr noundef nonnull align 4 dereferenceable(4) %7) #37
  unreachable

13:                                               ; preds = %5
  call void @llvm.lifetime.end.p0(i64 4, ptr nonnull %7) #35
  call void @llvm.lifetime.end.p0(i64 8, ptr nonnull %6) #35
  %.not8 = icmp eq i64 %4, 0
  br i1 %.not8, label %._crit_edge, label %.lr.ph

.lr.ph:                                           ; preds = %13
  %14 = getelementptr inbounds nuw i8, ptr %2, i64 8
  %15 = getelementptr inbounds nuw i8, ptr %2, i64 16
  br label %16

._crit_edge:                                      ; preds = %16, %13
  ret void

16:                                               ; preds = %.lr.ph, %16
  %.07 = phi i64 [ 0, %.lr.ph ], [ %23, %16 ]
  %17 = load ptr, ptr %14, align 8, !tbaa !108
  %.not.i.i = icmp eq ptr %17, null
  %18 = select i1 %.not.i.i, ptr %15, ptr %17
  %19 = getelementptr inbounds nuw i32, ptr %18, i64 %.07
  %20 = load i32, ptr %19, align 4, !tbaa !13
  %21 = getelementptr inbounds nuw float, ptr %3, i64 %.07
  %22 = load float, ptr %21, align 4, !tbaa !68
  tail call void @_ZN4pbrt5Image10SetChannelENS_6Point2IiEEif(ptr noundef nonnull align 8 dereferenceable(152) %0, i64 %1, i32 noundef %20, float noundef %22)
  %23 = add nuw i64 %.07, 1
  %exitcond.not = icmp eq i64 %23, %4
  br i1 %exitcond.not, label %._crit_edge, label %16, !llvm.loop !217
}